target datalayout = "e-m:e-p270:32:32-p271:32:32-p272:64:64-i64:64-i128:128-f80:128-n8:16:32:64-S128"
target triple = "x86_64-pc-linux-gnu"

%struct.AVFilterContext = type { ptr, ptr, ptr, ptr, ptr, i32, ptr, ptr, i32, ptr, ptr, i32, i32, ptr, ptr, ptr, ptr, i32, ptr, i32, i32 }
%struct.FFFilterContext = type { %struct.AVFilterContext, ptr, i32, i32, ptr, ptr, ptr }
%struct.FFFilterGraph = type { %struct.AVFilterGraph, ptr, i32, i32, ptr, ptr, %struct.FFFrameQueueGlobal }
%struct.AVFilterGraph = type { ptr, ptr, i32, ptr, i32, i32, ptr, ptr, ptr }
%struct.FFFrameQueueGlobal = type { i8 }
%struct.FFFilter = type { %struct.AVFilter, i8, i8, i8, ptr, ptr, ptr, %union.anon.1, i32, i32, ptr, ptr }
%struct.AVFilter = type { ptr, ptr, ptr, ptr, ptr, i32 }
%union.anon.1 = type { ptr }

@.str.27 = private unnamed_addr constant [28 x i8] c"Filter already initialized\0A\00", align 1
@.str.28 = private unnamed_addr constant [40 x i8] c"Error applying generic filter options.\0A\00", align 1

; Function Attrs: inlinehint nounwind uwtable
define internal ptr @fffilter(ptr noundef %0) #4 {
  %2 = alloca ptr, align 8
  store ptr %0, ptr %2, align 8, !tbaa !119
  %3 = load ptr, ptr %2, align 8, !tbaa !119
  ret ptr %3
}

; Function Attrs: inlinehint nounwind uwtable
define internal ptr @fffiltergraph(ptr noundef %0) #4 {
  %2 = alloca ptr, align 8
  store ptr %0, ptr %2, align 8, !tbaa !73
  %3 = load ptr, ptr %2, align 8, !tbaa !73
  ret ptr %3
}

; Function Attrs: inlinehint nounwind uwtable
define internal ptr @fffilterctx(ptr noundef %0) #4 {
  %2 = alloca ptr, align 8
  store ptr %0, ptr %2, align 8, !tbaa !4
  %3 = load ptr, ptr %2, align 8, !tbaa !4
  ret ptr %3
}

; Function Attrs: nounwind uwtable
define i32 @avfilter_init_dict(ptr noundef %0, ptr noundef %1) #0 {
  %3 = alloca i32, align 4
  %4 = alloca ptr, align 8
  %5 = alloca ptr, align 8
  %6 = alloca ptr, align 8
  %7 = alloca i32, align 4
  %8 = alloca i32, align 4
  store ptr %0, ptr %4, align 8, !tbaa !4
  store ptr %1, ptr %5, align 8, !tbaa !159
  call void @llvm.lifetime.start.p0(i64 8, ptr %6) #11
  %9 = load ptr, ptr %4, align 8, !tbaa !4
  %10 = call ptr @fffilterctx(ptr noundef %9)
  store ptr %10, ptr %6, align 8, !tbaa !74
  call void @llvm.lifetime.start.p0(i64 4, ptr %7) #11
  store i32 0, ptr %7, align 4, !tbaa !19
  %11 = load ptr, ptr %6, align 8, !tbaa !74
  %12 = getelementptr inbounds nuw %struct.FFFilterContext, ptr %11, i32 0, i32 2
  %13 = load i32, ptr %12, align 8, !tbaa !40
  %14 = and i32 %13, 1
  %15 = icmp ne i32 %14, 0
  br i1 %15, label %16, label %18

16:                                               ; preds = %2
  %17 = load ptr, ptr %4, align 8, !tbaa !4
  call void (ptr, i32, ptr, ...) @av_log(ptr noundef %17, i32 noundef 16, ptr noundef @.str.27)
  store i32 -22, ptr %3, align 4
  store i32 1, ptr %8, align 4
  br label %112

18:                                               ; preds = %2
  %19 = load ptr, ptr %4, align 8, !tbaa !4
  %20 = load ptr, ptr %5, align 8, !tbaa !159
  %21 = call i32 @av_opt_set_dict2(ptr noundef %19, ptr noundef %20, i32 noundef 1)
  store i32 %21, ptr %7, align 4, !tbaa !19
  %22 = load i32, ptr %7, align 4, !tbaa !19
  %23 = icmp slt i32 %22, 0
  br i1 %23, label %24, label %27

24:                                               ; preds = %18
  %25 = load ptr, ptr %4, align 8, !tbaa !4
  call void (ptr, i32, ptr, ...) @av_log(ptr noundef %25, i32 noundef 16, ptr noundef @.str.28)
  %26 = load i32, ptr %7, align 4, !tbaa !19
  store i32 %26, ptr %3, align 4
  store i32 1, ptr %8, align 4
  br label %112

27:                                               ; preds = %18
  %28 = load ptr, ptr %4, align 8, !tbaa !4
  %29 = getelementptr inbounds nuw %struct.AVFilterContext, ptr %28, i32 0, i32 1
  %30 = load ptr, ptr %29, align 8, !tbaa !110
  %31 = getelementptr inbounds nuw %struct.AVFilter, ptr %30, i32 0, i32 5
  %32 = load i32, ptr %31, align 8, !tbaa !129
  %33 = and i32 %32, 4
  %34 = icmp ne i32 %33, 0
  br i1 %34, label %35, label %66

35:                                               ; preds = %27
  %36 = load ptr, ptr %4, align 8, !tbaa !4
  %37 = getelementptr inbounds nuw %struct.AVFilterContext, ptr %36, i32 0, i32 11
  %38 = load i32, ptr %37, align 8, !tbaa !169
  %39 = load ptr, ptr %4, align 8, !tbaa !4
  %40 = getelementptr inbounds nuw %struct.AVFilterContext, ptr %39, i32 0, i32 10
  %41 = load ptr, ptr %40, align 8, !tbaa !28
  %42 = getelementptr inbounds nuw %struct.AVFilterGraph, ptr %41, i32 0, i32 4
  %43 = load i32, ptr %42, align 8, !tbaa !170
  %44 = and i32 %38, %43
  %45 = and i32 %44, 1
  %46 = icmp ne i32 %45, 0
  br i1 %46, label %47, label %66

47:                                               ; preds = %35
  %48 = load ptr, ptr %4, align 8, !tbaa !4
  %49 = getelementptr inbounds nuw %struct.AVFilterContext, ptr %48, i32 0, i32 10
  %50 = load ptr, ptr %49, align 8, !tbaa !28
  %51 = call ptr @fffiltergraph(ptr noundef %50)
  %52 = getelementptr inbounds nuw %struct.FFFilterGraph, ptr %51, i32 0, i32 5
  %53 = load ptr, ptr %52, align 8, !tbaa !171
  %54 = icmp ne ptr %53, null
  br i1 %54, label %55, label %66

55:                                               ; preds = %47
  %56 = load ptr, ptr %4, align 8, !tbaa !4
  %57 = getelementptr inbounds nuw %struct.AVFilterContext, ptr %56, i32 0, i32 11
  store i32 1, ptr %57, align 8, !tbaa !169
  %58 = load ptr, ptr %4, align 8, !tbaa !4
  %59 = getelementptr inbounds nuw %struct.AVFilterContext, ptr %58, i32 0, i32 10
  %60 = load ptr, ptr %59, align 8, !tbaa !28
  %61 = call ptr @fffiltergraph(ptr noundef %60)
  %62 = getelementptr inbounds nuw %struct.FFFilterGraph, ptr %61, i32 0, i32 5
  %63 = load ptr, ptr %62, align 8, !tbaa !171
  %64 = load ptr, ptr %6, align 8, !tbaa !74
  %65 = getelementptr inbounds nuw %struct.FFFilterContext, ptr %64, i32 0, i32 1
  store ptr %63, ptr %65, align 8, !tbaa !142
  br label %69

66:                                               ; preds = %47, %35, %27
  %67 = load ptr, ptr %4, align 8, !tbaa !4
  %68 = getelementptr inbounds nuw %struct.AVFilterContext, ptr %67, i32 0, i32 11
  store i32 0, ptr %68, align 8, !tbaa !169
  br label %69

69:                                               ; preds = %66, %55
  %70 = load ptr, ptr %4, align 8, !tbaa !4
  %71 = getelementptr inbounds nuw %struct.AVFilterContext, ptr %70, i32 0, i32 1
  %72 = load ptr, ptr %71, align 8, !tbaa !110
  %73 = call ptr @fffilter(ptr noundef %72)
  %74 = getelementptr inbounds nuw %struct.FFFilter, ptr %73, i32 0, i32 5
  %75 = load ptr, ptr %74, align 8, !tbaa !175
  %76 = icmp ne ptr %75, null
  br i1 %76, label %77, label %86

77:                                               ; preds = %69
  %78 = load ptr, ptr %4, align 8, !tbaa !4
  %79 = getelementptr inbounds nuw %struct.AVFilterContext, ptr %78, i32 0, i32 1
  %80 = load ptr, ptr %79, align 8, !tbaa !110
  %81 = call ptr @fffilter(ptr noundef %80)
  %82 = getelementptr inbounds nuw %struct.FFFilter, ptr %81, i32 0, i32 5
  %83 = load ptr, ptr %82, align 8, !tbaa !175
  %84 = load ptr, ptr %4, align 8, !tbaa !4
  %85 = call i32 %83(ptr noundef %84)
  store i32 %85, ptr %7, align 4, !tbaa !19
  br label %86

86:                                               ; preds = %77, %69
  %87 = load i32, ptr %7, align 4, !tbaa !19
  %88 = icmp slt i32 %87, 0
  br i1 %88, label %89, label %91

89:                                               ; preds = %86
  %90 = load i32, ptr %7, align 4, !tbaa !19
  store i32 %90, ptr %3, align 4
  store i32 1, ptr %8, align 4
  br label %112

91:                                               ; preds = %86
  %92 = load ptr, ptr %4, align 8, !tbaa !4
  %93 = getelementptr inbounds nuw %struct.AVFilterContext, ptr %92, i32 0, i32 14
  %94 = load ptr, ptr %93, align 8, !tbaa !132
  %95 = icmp ne ptr %94, null
  br i1 %95, label %96, label %107

96:                                               ; preds = %91
  %97 = load ptr, ptr %6, align 8, !tbaa !74
  %98 = load ptr, ptr %4, align 8, !tbaa !4
  %99 = getelementptr inbounds nuw %struct.AVFilterContext, ptr %98, i32 0, i32 14
  %100 = load ptr, ptr %99, align 8, !tbaa !132
  %101 = call i32 @set_enable_expr(ptr noundef %97, ptr noundef %100)
  store i32 %101, ptr %7, align 4, !tbaa !19
  %102 = load i32, ptr %7, align 4, !tbaa !19
  %103 = icmp slt i32 %102, 0
  br i1 %103, label %104, label %106

104:                                              ; preds = %96
  %105 = load i32, ptr %7, align 4, !tbaa !19
  store i32 %105, ptr %3, align 4
  store i32 1, ptr %8, align 4
  br label %112

106:                                              ; preds = %96
  br label %107

107:                                              ; preds = %106, %91
  %108 = load ptr, ptr %6, align 8, !tbaa !74
  %109 = getelementptr inbounds nuw %struct.FFFilterContext, ptr %108, i32 0, i32 2
  %110 = load i32, ptr %109, align 8, !tbaa !40
  %111 = or i32 %110, 1
  store i32 %111, ptr %109, align 8, !tbaa !40
  store i32 0, ptr %3, align 4
  store i32 1, ptr %8, align 4
  br label %112

112:                                              ; preds = %107, %104, %89, %24, %16
  call void @llvm.lifetime.end.p0(i64 4, ptr %7) #11
  call void @llvm.lifetime.end.p0(i64 8, ptr %6) #11
  %113 = load i32, ptr %3, align 4
  ret i32 %113
}