; Function Attrs: nounwind uwtable
define range(i32 -2147483648, 1) i32 @avfilter_init_dict(ptr noundef %0, ptr noundef %1) local_unnamed_addr #0 {
  %3 = getelementptr inbounds nuw i8, ptr %0, i64 160
  %4 = load i32, ptr %3, align 8, !tbaa !31
  %5 = and i32 %4, 1
  %.not = icmp eq i32 %5, 0
  br i1 %.not, label %7, label %6

6:                                                ; preds = %2
  tail call void (ptr, i32, ptr, ...) @av_log(ptr noundef nonnull %0, i32 noundef 16, ptr noundef nonnull @.str.27) #15
  br label %47

7:                                                ; preds = %2
  %8 = tail call i32 @av_opt_set_dict2(ptr noundef nonnull %0, ptr noundef %1, i32 noundef 1) #15
  %9 = icmp slt i32 %8, 0
  br i1 %9, label %10, label %11

10:                                               ; preds = %7
  tail call void (ptr, i32, ptr, ...) @av_log(ptr noundef nonnull %0, i32 noundef 16, ptr noundef nonnull @.str.28) #15
  br label %47

11:                                               ; preds = %7
  %12 = getelementptr inbounds nuw i8, ptr %0, i64 8
  %13 = load ptr, ptr %12, align 8, !tbaa !92
  %14 = getelementptr inbounds nuw i8, ptr %13, i64 40
  %15 = load i32, ptr %14, align 8, !tbaa !105
  %16 = and i32 %15, 4
  %.not31 = icmp eq i32 %16, 0
  br i1 %.not31, label %31, label %17

17:                                               ; preds = %11
  %18 = getelementptr inbounds nuw i8, ptr %0, i64 88
  %19 = load i32, ptr %18, align 8, !tbaa !139
  %20 = getelementptr inbounds nuw i8, ptr %0, i64 80
  %21 = load ptr, ptr %20, align 8, !tbaa !19
  %22 = getelementptr inbounds nuw i8, ptr %21, i64 32
  %23 = load i32, ptr %22, align 8, !tbaa !140
  %24 = and i32 %19, 1
  %25 = and i32 %24, %23
  %.not32 = icmp eq i32 %25, 0
  br i1 %.not32, label %31, label %26

26:                                               ; preds = %17
  %27 = getelementptr inbounds nuw i8, ptr %21, i64 88
  %28 = load ptr, ptr %27, align 8, !tbaa !141
  %.not33 = icmp eq ptr %28, null
  br i1 %.not33, label %31, label %29

29:                                               ; preds = %26
  store i32 1, ptr %18, align 8, !tbaa !139
  %30 = getelementptr inbounds nuw i8, ptr %0, i64 152
  store ptr %28, ptr %30, align 8, !tbaa !115
  br label %33

31:                                               ; preds = %26, %17, %11
  %32 = getelementptr inbounds nuw i8, ptr %0, i64 88
  store i32 0, ptr %32, align 8, !tbaa !139
  br label %33

33:                                               ; preds = %31, %29
  %34 = getelementptr inbounds nuw i8, ptr %13, i64 64
  %35 = load ptr, ptr %34, align 8, !tbaa !145
  %.not34 = icmp eq ptr %35, null
  br i1 %.not34, label %.thread, label %36

36:                                               ; preds = %33
  %37 = tail call i32 %35(ptr noundef nonnull %0) #15
  %38 = icmp slt i32 %37, 0
  br i1 %38, label %47, label %.thread

.thread:                                          ; preds = %33, %36
  %39 = getelementptr inbounds nuw i8, ptr %0, i64 104
  %40 = load ptr, ptr %39, align 8, !tbaa !108
  %.not35 = icmp eq ptr %40, null
  br i1 %.not35, label %44, label %41

41:                                               ; preds = %.thread
  %42 = tail call fastcc i32 @set_enable_expr(ptr noundef nonnull %0, ptr noundef nonnull %40)
  %43 = icmp slt i32 %42, 0
  br i1 %43, label %47, label %44

44:                                               ; preds = %41, %.thread
  %45 = load i32, ptr %3, align 8, !tbaa !31
  %46 = or i32 %45, 1
  store i32 %46, ptr %3, align 8, !tbaa !31
  br label %47

47:                                               ; preds = %41, %36, %44, %10, %6
  %.027 = phi i32 [ -22, %6 ], [ %8, %10 ], [ 0, %44 ], [ %37, %36 ], [ %42, %41 ]
  ret i32 %.027
}